	.file	"simple_adder.c"
	.intel_syntax noprefix
	.text
	.globl	calculator
	.type	calculator, @function
calculator:
.LFB0:
	.cfi_startproc
	push	rbp
	.cfi_def_cfa_offset 16
	.cfi_offset 6, -16
	mov	rbp, rsp
	.cfi_def_cfa_register 6
	mov	DWORD PTR -4[rbp], edi
	mov	DWORD PTR -8[rbp], esi
	mov	edx, DWORD PTR -4[rbp]
	mov	eax, DWORD PTR -8[rbp]
	add	eax, edx
	pop	rbp
	.cfi_def_cfa 7, 8
	ret
	.cfi_endproc
.LFE0:
	.size	calculator, .-calculator
	.section	.rodata
.LC0:
	.string	"This is our adder program."
.LC1:
	.string	"%d + %d = %d\n"
	.text
	.globl	main
	.type	main, @function
main:
.LFB1:
	.cfi_startproc
	push	rbp
	.cfi_def_cfa_offset 16
	.cfi_offset 6, -16
	mov	rbp, rsp
	.cfi_def_cfa_register 6
	sub	rsp, 32
	mov	DWORD PTR -20[rbp], edi
	mov	QWORD PTR -32[rbp], rsi
	lea	rax, .LC0[rip]
	mov	rdi, rax
	call	puts@PLT
	mov	DWORD PTR -4[rbp], 5
	mov	DWORD PTR -8[rbp], 13
	mov	edx, DWORD PTR -8[rbp]
	mov	eax, DWORD PTR -4[rbp]
	mov	esi, edx
	mov	edi, eax
	call	calculator
	mov	DWORD PTR -12[rbp], eax
	mov	ecx, DWORD PTR -12[rbp]
	mov	edx, DWORD PTR -8[rbp]
	mov	eax, DWORD PTR -4[rbp]
	mov	esi, eax
	lea	rax, .LC1[rip]
	mov	rdi, rax
	mov	eax, 0
	call	printf@PLT
	mov	eax, 0
	leave
	.cfi_def_cfa 7, 8
	ret
	.cfi_endproc
.LFE1:
	.size	main, .-main
	.ident	"GCC: (Debian 12.2.0-14) 12.2.0"
	.section	.note.GNU-stack,"",@progbits
